target datalayout = "e-m:e-p270:32:32-p271:32:32-p272:64:64-i64:64-i128:128-f80:128-n8:16:32:64-S128"
target triple = "x86_64-pc-linux-gnu"

; Function Attrs: inlinehint mustprogress uwtable
define linkonce_odr noundef i32 @_ZN6icu_775Grego14gregorianShiftEi(i32 noundef %0) #6 comdat align 2 {
  %2 = alloca i32, align 4
  %3 = alloca i64, align 8
  %4 = alloca i64, align 8
  store i32 %0, ptr %2, align 4, !tbaa !31
  call void @llvm.lifetime.start.p0(i64 8, ptr %3) #10
  %5 = load i32, ptr %2, align 4, !tbaa !31
  %6 = sext i32 %5 to i64
  %7 = sub nsw i64 %6, 1
  store i64 %7, ptr %3, align 8, !tbaa !43
  call void @llvm.lifetime.start.p0(i64 8, ptr %4) #10
  %8 = load i64, ptr %3, align 8, !tbaa !43
  %9 = call noundef i64 @_ZN6icu_779ClockMath16floorDivideInt64Ell(i64 noundef %8, i64 noundef 400)
  %10 = load i64, ptr %3, align 8, !tbaa !43
  %11 = call noundef i64 @_ZN6icu_779ClockMath16floorDivideInt64Ell(i64 noundef %10, i64 noundef 100)
  %12 = sub nsw i64 %9, %11
  %13 = add nsw i64 %12, 2
  store i64 %13, ptr %4, align 8, !tbaa !43
  %14 = load i64, ptr %4, align 8, !tbaa !43
  %15 = trunc i64 %14 to i32
  call void @llvm.lifetime.end.p0(i64 8, ptr %4) #10
  call void @llvm.lifetime.end.p0(i64 8, ptr %3) #10
  ret i32 %15
}

; Function Attrs: mustprogress uwtable
define noundef double @_ZN6icu_7717GregorianCalendar22computeJulianDayOfYearEaiRa(i8 noundef signext %0, i32 noundef %1, ptr noundef nonnull align 1 dereferenceable(1) %2) #1 align 2 {
  %4 = alloca i8, align 1
  %5 = alloca i32, align 4
  %6 = alloca ptr, align 8
  %7 = alloca i32, align 4
  %8 = alloca double, align 8
  store i8 %0, ptr %4, align 1, !tbaa !37
  store i32 %1, ptr %5, align 4, !tbaa !31
  store ptr %2, ptr %6, align 8, !tbaa !50
  %9 = load i32, ptr %5, align 4, !tbaa !31
  %10 = srem i32 %9, 4
  %11 = icmp eq i32 %10, 0
  %12 = zext i1 %11 to i8
  %13 = load ptr, ptr %6, align 8, !tbaa !50
  store i8 %12, ptr %13, align 1, !tbaa !37
  call void @llvm.lifetime.start.p0(i64 4, ptr %7) #10
  %14 = load i32, ptr %5, align 4, !tbaa !31
  %15 = sub nsw i32 %14, 1
  store i32 %15, ptr %7, align 4, !tbaa !31
  call void @llvm.lifetime.start.p0(i64 8, ptr %8) #10
  %16 = load i32, ptr %7, align 4, !tbaa !31
  %17 = sitofp i32 %16 to double
  %18 = load i32, ptr %7, align 4, !tbaa !31
  %19 = call noundef i32 @_ZN6icu_779ClockMath11floorDivideEii(i32 noundef %18, i32 noundef 4)
  %20 = sitofp i32 %19 to double
  %21 = call double @llvm.fmuladd.f64(double 3.650000e+02, double %17, double %20)
  %22 = fadd double %21, 0x413A444F00000000
  store double %22, ptr %8, align 8, !tbaa !34
  %23 = load i8, ptr %4, align 1, !tbaa !37
  %24 = icmp ne i8 %23, 0
  br i1 %24, label %25, label %48

25:                                               ; preds = %3
  %26 = load ptr, ptr %6, align 8, !tbaa !50
  %27 = load i8, ptr %26, align 1, !tbaa !37
  %28 = icmp ne i8 %27, 0
  br i1 %28, label %29, label %39

29:                                               ; preds = %25
  %30 = load i32, ptr %5, align 4, !tbaa !31
  %31 = srem i32 %30, 100
  %32 = icmp ne i32 %31, 0
  br i1 %32, label %37, label %33

33:                                               ; preds = %29
  %34 = load i32, ptr %5, align 4, !tbaa !31
  %35 = srem i32 %34, 400
  %36 = icmp eq i32 %35, 0
  br label %37

37:                                               ; preds = %33, %29
  %38 = phi i1 [ true, %29 ], [ %36, %33 ]
  br label %39

39:                                               ; preds = %37, %25
  %40 = phi i1 [ false, %25 ], [ %38, %37 ]
  %41 = zext i1 %40 to i8
  %42 = load ptr, ptr %6, align 8, !tbaa !50
  store i8 %41, ptr %42, align 1, !tbaa !37
  %43 = load i32, ptr %5, align 4, !tbaa !31
  %44 = call noundef i32 @_ZN6icu_775Grego14gregorianShiftEi(i32 noundef %43)
  %45 = sitofp i32 %44 to double
  %46 = load double, ptr %8, align 8, !tbaa !34
  %47 = fadd double %46, %45
  store double %47, ptr %8, align 8, !tbaa !34
  br label %48

48:                                               ; preds = %39, %3
  %49 = load double, ptr %8, align 8, !tbaa !34
  call void @llvm.lifetime.end.p0(i64 8, ptr %8) #10
  call void @llvm.lifetime.end.p0(i64 4, ptr %7) #10
  ret double %49
}