; Function Attrs: mustprogress uwtable
define noundef double @_ZN6icu_7717GregorianCalendar22computeJulianDayOfYearEaiRa(i8 noundef signext %0, i32 noundef %1, ptr noundef nonnull align 1 captures(none) dereferenceable(1) initializes((0, 1)) %2) local_unnamed_addr #1 align 2 {
  %4 = and i32 %1, 3
  %5 = icmp eq i32 %4, 0
  %6 = zext i1 %5 to i8
  store i8 %6, ptr %2, align 1, !tbaa !33
  %7 = add nsw i32 %1, -1
  %8 = sitofp i32 %7 to double
  %9 = tail call noundef i32 @_ZN6icu_779ClockMath11floorDivideEii(i32 noundef %7, i32 noundef 4)
  %10 = sitofp i32 %9 to double
  %11 = tail call double @llvm.fmuladd.f64(double %8, double 3.650000e+02, double %10)
  %12 = fadd double %11, 0x413A444F00000000
  %.not = icmp eq i8 %0, 0
  br i1 %.not, label %32, label %13

13:                                               ; preds = %3
  %14 = load i8, ptr %2, align 1, !tbaa !33
  %.not12 = icmp eq i8 %14, 0
  br i1 %.not12, label %21, label %15

15:                                               ; preds = %13
  %16 = srem i32 %1, 100
  %.not13 = icmp eq i32 %16, 0
  br i1 %.not13, label %17, label %21

17:                                               ; preds = %15
  %18 = srem i32 %1, 400
  %19 = icmp eq i32 %18, 0
  %20 = zext i1 %19 to i8
  br label %21

21:                                               ; preds = %15, %17, %13
  %22 = phi i8 [ 0, %13 ], [ 1, %15 ], [ %20, %17 ]
  store i8 %22, ptr %2, align 1, !tbaa !33
  %23 = sext i32 %1 to i64
  %24 = add nsw i64 %23, -1
  %25 = tail call noundef i64 @_ZN6icu_779ClockMath16floorDivideInt64Ell(i64 noundef %24, i64 noundef 400)
  %26 = tail call noundef i64 @_ZN6icu_779ClockMath16floorDivideInt64Ell(i64 noundef %24, i64 noundef 100)
  %27 = sub nsw i64 %25, %26
  %28 = trunc i64 %27 to i32
  %29 = add i32 %28, 2
  %30 = sitofp i32 %29 to double
  %31 = fadd double %12, %30
  br label %32

32:                                               ; preds = %21, %3
  %.0 = phi double [ %31, %21 ], [ %12, %3 ]
  ret double %.0
}